target datalayout = "e-m:e-p270:32:32-p271:32:32-p272:64:64-i64:64-i128:128-f80:128-n8:16:32:64-S128"
target triple = "x86_64-unknown-linux-gnu"

%struct.btTypedObject = type { i32 }
%class.btGeneric6DofSpringConstraint = type { %class.btGeneric6DofConstraint.base, [6 x i8], [6 x float], [6 x float], [6 x float], [4 x i8] }
%class.btGeneric6DofConstraint.base = type <{ %class.btTypedConstraint, %class.btTransform, %class.btTransform, [3 x %class.btJacobianEntry], [3 x %class.btJacobianEntry], %class.btTranslationalLimitMotor, [3 x %class.btRotationalLimitMotor], float, %class.btTransform, %class.btTransform, %class.btVector3, [3 x %class.btVector3], %class.btVector3, float, float, i8, [3 x i8], %class.btVector3, i8, i8, [2 x i8], i32, i8 }>
%class.btTypedConstraint = type { ptr, %struct.btTypedObject, i32, %union.anon.0, float, i8, i8, i32, ptr, ptr, float, float, ptr }
%union.anon.0 = type { ptr }
%class.btJacobianEntry = type { %class.btVector3, %class.btVector3, %class.btVector3, %class.btVector3, %class.btVector3, float }
%class.btTranslationalLimitMotor = type { %class.btVector3, %class.btVector3, %class.btVector3, float, float, float, %class.btVector3, %class.btVector3, %class.btVector3, [3 x i8], %class.btVector3, %class.btVector3, %class.btVector3, %class.btVector3, [3 x i32] }
%class.btRotationalLimitMotor = type { float, float, float, float, float, float, float, float, float, float, float, i8, float, float, i32, float }
%class.btTransform = type { %class.btMatrix3x3, %class.btVector3 }
%class.btMatrix3x3 = type { [3 x %class.btVector3] }
%class.btVector3 = type { [4 x float] }
%class.btGeneric6DofConstraint = type <{ %class.btTypedConstraint, %class.btTransform, %class.btTransform, [3 x %class.btJacobianEntry], [3 x %class.btJacobianEntry], %class.btTranslationalLimitMotor, [3 x %class.btRotationalLimitMotor], float, %class.btTransform, %class.btTransform, %class.btVector3, [3 x %class.btVector3], %class.btVector3, float, float, i8, [3 x i8], %class.btVector3, i8, i8, [2 x i8], i32, i8, [3 x i8] }>

; Function Attrs: mustprogress nounwind uwtable
define linkonce_odr dso_local noundef ptr @_ZN9btVector3cvPfEv(ptr noundef nonnull align 4 dereferenceable(16) %this) #1 comdat align 2 {
entry:
  %this.addr = alloca ptr, align 8
  store ptr %this, ptr %this.addr, align 8
  %this1 = load ptr, ptr %this.addr, align 8
  %m_floats = getelementptr inbounds %class.btVector3, ptr %this1, i32 0, i32 0
  %arrayidx = getelementptr inbounds [4 x float], ptr %m_floats, i64 0, i64 0
  ret ptr %arrayidx
}

; Function Attrs: mustprogress uwtable
define dso_local void @_ZN29btGeneric6DofSpringConstraint19setEquilibriumPointEi(ptr noundef nonnull align 8 dereferenceable(1412) %this, i32 noundef %index) #2 align 2 {
entry:
  %this.addr = alloca ptr, align 8
  %index.addr = alloca i32, align 4
  store ptr %this, ptr %this.addr, align 8
  store i32 %index, ptr %index.addr, align 4
  %this1 = load ptr, ptr %this.addr, align 8
  call void @_ZN23btGeneric6DofConstraint19calculateTransformsEv(ptr noundef nonnull align 8 dereferenceable(1333) %this1)
  %0 = load i32, ptr %index.addr, align 4
  %cmp = icmp slt i32 %0, 3
  br i1 %cmp, label %if.then, label %if.else

if.then:                                          ; preds = %entry
  %m_calculatedLinearDiff = getelementptr inbounds %class.btGeneric6DofConstraint, ptr %this1, i32 0, i32 12
  %call = call noundef ptr @_ZN9btVector3cvPfEv(ptr noundef nonnull align 4 dereferenceable(16) %m_calculatedLinearDiff)
  %1 = load i32, ptr %index.addr, align 4
  %idxprom = sext i32 %1 to i64
  %arrayidx = getelementptr inbounds float, ptr %call, i64 %idxprom
  %2 = load float, ptr %arrayidx, align 4
  %m_equilibriumPoint = getelementptr inbounds %class.btGeneric6DofSpringConstraint, ptr %this1, i32 0, i32 2
  %3 = load i32, ptr %index.addr, align 4
  %idxprom2 = sext i32 %3 to i64
  %arrayidx3 = getelementptr inbounds [6 x float], ptr %m_equilibriumPoint, i64 0, i64 %idxprom2
  store float %2, ptr %arrayidx3, align 4
  br label %if.end

if.else:                                          ; preds = %entry
  %m_calculatedAxisAngleDiff = getelementptr inbounds %class.btGeneric6DofConstraint, ptr %this1, i32 0, i32 10
  %call4 = call noundef ptr @_ZN9btVector3cvPfEv(ptr noundef nonnull align 4 dereferenceable(16) %m_calculatedAxisAngleDiff)
  %4 = load i32, ptr %index.addr, align 4
  %sub = sub nsw i32 %4, 3
  %idxprom5 = sext i32 %sub to i64
  %arrayidx6 = getelementptr inbounds float, ptr %call4, i64 %idxprom5
  %5 = load float, ptr %arrayidx6, align 4
  %m_equilibriumPoint7 = getelementptr inbounds %class.btGeneric6DofSpringConstraint, ptr %this1, i32 0, i32 2
  %6 = load i32, ptr %index.addr, align 4
  %idxprom8 = sext i32 %6 to i64
  %arrayidx9 = getelementptr inbounds [6 x float], ptr %m_equilibriumPoint7, i64 0, i64 %idxprom8
  store float %5, ptr %arrayidx9, align 4
  br label %if.end

if.end:                                           ; preds = %if.else, %if.then
  ret void
}