; Function Attrs: mustprogress uwtable
define dso_local void @_ZN29btGeneric6DofSpringConstraint19setEquilibriumPointEi(ptr noundef nonnull align 8 dereferenceable(1412) %this, i32 noundef %index) local_unnamed_addr #1 align 2 {
entry:
  tail call void @_ZN23btGeneric6DofConstraint19calculateTransformsEv(ptr noundef nonnull align 8 dereferenceable(1333) %this)
  %cmp = icmp slt i32 %index, 3
  %m_calculatedAxisAngleDiff = getelementptr inbounds i8, ptr %this, i64 1216
  %0 = zext nneg i32 %index to i64
  %1 = getelementptr float, ptr %m_calculatedAxisAngleDiff, i64 %0
  %arrayidx6 = getelementptr i8, ptr %1, i64 -12
  %m_calculatedLinearDiff = getelementptr inbounds i8, ptr %this, i64 1280
  %idxprom = sext i32 %index to i64
  %arrayidx = getelementptr inbounds float, ptr %m_calculatedLinearDiff, i64 %idxprom
  %arrayidx6.sink = select i1 %cmp, ptr %arrayidx, ptr %arrayidx6
  %.sink5 = select i1 %cmp, i64 %idxprom, i64 %0
  %2 = load float, ptr %arrayidx6.sink, align 4
  %m_equilibriumPoint7 = getelementptr inbounds i8, ptr %this, i64 1340
  %arrayidx9 = getelementptr inbounds [6 x float], ptr %m_equilibriumPoint7, i64 0, i64 %.sink5
  store float %2, ptr %arrayidx9, align 4
  ret void
}